target datalayout = "e-m:e-p270:32:32-p271:32:32-p272:64:64-i64:64-i128:128-f80:128-n8:16:32:64-S128"
target triple = "x86_64-pc-linux-gnu"

%struct.RBasic = type { i64, i64 }
%struct.RString = type { %struct.RBasic, i64, %union.anon.0 }
%union.anon.0 = type { %struct.anon.1 }
%struct.anon.1 = type { ptr, %union.anon.2 }
%union.anon.2 = type { i64 }

@.str.129 = private unnamed_addr constant [21 x i8] c"../internal/object.h\00", align 1

; Function Attrs: inlinehint nounwind sspstrong willreturn memory(none) uwtable
define internal zeroext i1 @RB_IMMEDIATE_P(i64 noundef %0) #10 {
  %2 = alloca i64, align 8
  store i64 %0, ptr %2, align 8, !tbaa !7
  %3 = load i64, ptr %2, align 8, !tbaa !7
  %4 = and i64 %3, 7
  %5 = icmp ne i64 %4, 0
  ret i1 %5
}

; Function Attrs: inlinehint nounwind sspstrong willreturn memory(none) uwtable
define internal zeroext i1 @RB_SPECIAL_CONST_P(i64 noundef %0) #10 {
  %2 = alloca i64, align 8
  store i64 %0, ptr %2, align 8, !tbaa !7
  %3 = load i64, ptr %2, align 8, !tbaa !7
  %4 = icmp eq i64 %3, 0
  br i1 %4, label %8, label %5

5:                                                ; preds = %1
  %6 = load i64, ptr %2, align 8, !tbaa !7
  %7 = call zeroext i1 @RB_IMMEDIATE_P(i64 noundef %6) #27
  br label %8

8:                                                ; preds = %5, %1
  %9 = phi i1 [ true, %1 ], [ %7, %5 ]
  ret i1 %9
}

; Function Attrs: inlinehint nounwind sspstrong uwtable
define internal i64 @rb_obj_written(i64 noundef %0, i64 noundef %1, i64 noundef %2, ptr noundef %3, i32 noundef %4) #8 {
  %6 = alloca i64, align 8
  %7 = alloca i64, align 8
  %8 = alloca i64, align 8
  %9 = alloca ptr, align 8
  %10 = alloca i32, align 4
  store i64 %0, ptr %6, align 8, !tbaa !7
  store i64 %1, ptr %7, align 8, !tbaa !7
  store i64 %2, ptr %8, align 8, !tbaa !7
  store ptr %3, ptr %9, align 8, !tbaa !16
  store i32 %4, ptr %10, align 4, !tbaa !11
  %11 = load i64, ptr %8, align 8, !tbaa !7
  %12 = call zeroext i1 @RB_SPECIAL_CONST_P(i64 noundef %11) #27
  br i1 %12, label %16, label %13

13:                                               ; preds = %5
  %14 = load i64, ptr %6, align 8, !tbaa !7
  %15 = load i64, ptr %8, align 8, !tbaa !7
  call void @rb_gc_writebarrier(i64 noundef %14, i64 noundef %15)
  br label %16

16:                                               ; preds = %13, %5
  %17 = load i64, ptr %6, align 8, !tbaa !7
  ret i64 %17
}

; Function Attrs: inlinehint nounwind sspstrong uwtable
define internal void @RBASIC_SET_CLASS_RAW(i64 noundef %0, i64 noundef %1) #8 {
  %3 = alloca i64, align 8
  %4 = alloca i64, align 8
  %5 = alloca ptr, align 8
  store i64 %0, ptr %3, align 8, !tbaa !7
  store i64 %1, ptr %4, align 8, !tbaa !7
  call void @llvm.lifetime.start.p0(i64 8, ptr %5) #24
  %6 = load i64, ptr %3, align 8, !tbaa !7
  %7 = inttoptr i64 %6 to ptr
  %8 = getelementptr inbounds nuw %struct.RBasic, ptr %7, i32 0, i32 1
  store ptr %8, ptr %5, align 8, !tbaa !13
  %9 = load i64, ptr %4, align 8, !tbaa !7
  %10 = load ptr, ptr %5, align 8, !tbaa !13
  store i64 %9, ptr %10, align 8, !tbaa !7
  call void @llvm.lifetime.end.p0(i64 8, ptr %5) #24
  ret void
}

; Function Attrs: inlinehint nounwind sspstrong willreturn memory(read) uwtable
define internal i64 @RBASIC_CLASS(i64 noundef %0) #3 {
  %2 = alloca i64, align 8
  store i64 %0, ptr %2, align 8, !tbaa !7
  %3 = load i64, ptr %2, align 8, !tbaa !7
  %4 = inttoptr i64 %3 to ptr
  %5 = getelementptr inbounds nuw %struct.RBasic, ptr %4, i32 0, i32 1
  %6 = load i64, ptr %5, align 8, !tbaa !206
  ret i64 %6
}

; Function Attrs: inlinehint nounwind sspstrong willreturn memory(read) uwtable
define internal i64 @RSTRING_LEN(i64 noundef %0) #3 {
  %2 = alloca i64, align 8
  store i64 %0, ptr %2, align 8, !tbaa !7
  %3 = load i64, ptr %2, align 8, !tbaa !7
  %4 = inttoptr i64 %3 to ptr
  %5 = getelementptr inbounds nuw %struct.RString, ptr %4, i32 0, i32 1
  %6 = load i64, ptr %5, align 8, !tbaa !81
  ret i64 %6
}

; Function Attrs: inlinehint nounwind sspstrong uwtable
define internal void @RBASIC_SET_CLASS(i64 noundef %0, i64 noundef %1) #8 {
  %3 = alloca i64, align 8
  %4 = alloca i64, align 8
  %5 = alloca i64, align 8
  store i64 %0, ptr %3, align 8, !tbaa !7
  store i64 %1, ptr %4, align 8, !tbaa !7
  call void @llvm.lifetime.start.p0(i64 8, ptr %5) #24
  %6 = load i64, ptr %3, align 8, !tbaa !7
  %7 = call i64 @RBASIC_CLASS(i64 noundef %6) #25
  store i64 %7, ptr %5, align 8, !tbaa !7
  %8 = load i64, ptr %3, align 8, !tbaa !7
  %9 = load i64, ptr %4, align 8, !tbaa !7
  call void @RBASIC_SET_CLASS_RAW(i64 noundef %8, i64 noundef %9)
  %10 = load i64, ptr %3, align 8, !tbaa !7
  %11 = load i64, ptr %5, align 8, !tbaa !7
  %12 = load i64, ptr %4, align 8, !tbaa !7
  %13 = call i64 @rb_obj_written(i64 noundef %10, i64 noundef %11, i64 noundef %12, ptr noundef @.str.129, i32 noundef 61)
  call void @llvm.lifetime.end.p0(i64 8, ptr %5) #24
  ret void
}

; Function Attrs: nounwind sspstrong uwtable
define internal i64 @str_shrink(i64 noundef %0) #0 {
  %2 = alloca i64, align 8
  store i64 %0, ptr %2, align 8, !tbaa !7
  %3 = load i64, ptr %2, align 8, !tbaa !7
  %4 = load i64, ptr %2, align 8, !tbaa !7
  %5 = call i64 @RSTRING_LEN(i64 noundef %4) #25
  %6 = call i64 @rb_str_resize(i64 noundef %3, i64 noundef %5)
  %7 = load i64, ptr %2, align 8, !tbaa !7
  ret i64 %7
}

; Function Attrs: nounwind sspstrong uwtable
define internal i64 @copy_path_class(i64 noundef %0, i64 noundef %1) #0 {
  %3 = alloca i64, align 8
  %4 = alloca i64, align 8
  %5 = alloca i32, align 4
  store i64 %0, ptr %3, align 8, !tbaa !7
  store i64 %1, ptr %4, align 8, !tbaa !7
  call void @llvm.lifetime.start.p0(i64 4, ptr %5) #24
  %6 = load i64, ptr %4, align 8, !tbaa !7
  %7 = call i32 @rb_enc_get_index(i64 noundef %6)
  store i32 %7, ptr %5, align 4, !tbaa !11
  %8 = load i32, ptr %5, align 4, !tbaa !11
  %9 = icmp eq i32 %8, 0
  br i1 %9, label %13, label %10

10:                                               ; preds = %2
  %11 = load i32, ptr %5, align 4, !tbaa !11
  %12 = icmp eq i32 %11, 2
  br i1 %12, label %13, label %15

13:                                               ; preds = %10, %2
  %14 = call i32 @rb_filesystem_encindex()
  store i32 %14, ptr %5, align 4, !tbaa !11
  br label %15

15:                                               ; preds = %13, %10
  %16 = load i64, ptr %3, align 8, !tbaa !7
  %17 = load i32, ptr %5, align 4, !tbaa !11
  %18 = call i64 @rb_enc_associate_index(i64 noundef %16, i32 noundef %17)
  %19 = load i64, ptr %3, align 8, !tbaa !7
  %20 = call i64 @str_shrink(i64 noundef %19)
  %21 = load i64, ptr %3, align 8, !tbaa !7
  %22 = load i64, ptr %4, align 8, !tbaa !7
  %23 = call i64 @rb_obj_class(i64 noundef %22)
  call void @RBASIC_SET_CLASS(i64 noundef %21, i64 noundef %23)
  %24 = load i64, ptr %3, align 8, !tbaa !7
  call void @rb_obj_freeze_inline(i64 noundef %24)
  %25 = load i64, ptr %3, align 8, !tbaa !7
  call void @llvm.lifetime.end.p0(i64 4, ptr %5) #24
  ret i64 %25
}