; Function Attrs: nounwind sspstrong uwtable
define internal fastcc noundef i64 @copy_path_class(i64 noundef returned %0, i64 noundef %1) unnamed_addr #0 {
  %3 = tail call i32 @rb_enc_get_index(i64 noundef %1) #22
  %4 = and i32 %3, -3
  %or.cond = icmp eq i32 %4, 0
  br i1 %or.cond, label %5, label %7

5:                                                ; preds = %2
  %6 = tail call i32 @rb_filesystem_encindex() #22
  br label %7

7:                                                ; preds = %2, %5
  %.0 = phi i32 [ %6, %5 ], [ %3, %2 ]
  %8 = tail call i64 @rb_enc_associate_index(i64 noundef %0, i32 noundef %.0) #22
  %9 = inttoptr i64 %0 to ptr
  %10 = getelementptr inbounds nuw i8, ptr %9, i64 16
  %11 = load i64, ptr %10, align 8, !tbaa !108
  %12 = tail call i64 @rb_str_resize(i64 noundef %0, i64 noundef %11) #22
  %13 = tail call i64 @rb_obj_class(i64 noundef %1) #22
  %14 = getelementptr inbounds nuw i8, ptr %9, i64 8
  store i64 %13, ptr %14, align 8, !tbaa !12
  %15 = icmp eq i64 %13, 0
  %16 = and i64 %13, 7
  %17 = icmp ne i64 %16, 0
  %18 = or i1 %15, %17
  br i1 %18, label %RBASIC_SET_CLASS.exit, label %19

19:                                               ; preds = %7
  tail call void @rb_gc_writebarrier(i64 noundef %0, i64 noundef %13) #22
  br label %RBASIC_SET_CLASS.exit

RBASIC_SET_CLASS.exit:                            ; preds = %7, %19
  tail call void @rb_obj_freeze_inline(i64 noundef %0) #22
  ret i64 %0
}